; Function Attrs: nounwind uwtable
define hidden i32 @aom_rb_read_inv_signed_literal(ptr noundef captures(none) %0, i32 noundef %1) local_unnamed_addr #1 {
  %3 = icmp sgt i32 %1, -1
  br i1 %3, label %.lr.ph.i, label %aom_rb_read_literal.exit

.lr.ph.i:                                         ; preds = %2
  %4 = add nuw nsw i32 %1, 1
  %5 = getelementptr inbounds nuw i8, ptr %0, i64 16
  %6 = getelementptr inbounds nuw i8, ptr %0, i64 8
  %7 = getelementptr inbounds nuw i8, ptr %0, i64 32
  %8 = getelementptr inbounds nuw i8, ptr %0, i64 24
  br label %9

9:                                                ; preds = %aom_rb_read_bit.exit.i, %.lr.ph.i
  %.0.in8.i = phi i32 [ %4, %.lr.ph.i ], [ %.0.i, %aom_rb_read_bit.exit.i ]
  %.067.i = phi i32 [ 0, %.lr.ph.i ], [ %30, %aom_rb_read_bit.exit.i ]
  %.0.i = add nsw i32 %.0.in8.i, -1
  %10 = load i32, ptr %5, align 8
  %11 = lshr i32 %10, 3
  %12 = load ptr, ptr %0, align 8
  %13 = zext nneg i32 %11 to i64
  %14 = getelementptr inbounds nuw i8, ptr %12, i64 %13
  %15 = load ptr, ptr %6, align 8
  %16 = icmp ult ptr %14, %15
  br i1 %16, label %17, label %25

17:                                               ; preds = %9
  %18 = and i32 %10, 7
  %19 = xor i32 %18, 7
  %20 = load i8, ptr %14, align 1
  %21 = zext i8 %20 to i32
  %22 = lshr i32 %21, %19
  %23 = and i32 %22, 1
  %24 = add i32 %10, 1
  store i32 %24, ptr %5, align 8
  br label %aom_rb_read_bit.exit.i

25:                                               ; preds = %9
  %26 = load ptr, ptr %7, align 8
  %.not.i.i = icmp eq ptr %26, null
  br i1 %.not.i.i, label %aom_rb_read_bit.exit.i, label %27

27:                                               ; preds = %25
  %28 = load ptr, ptr %8, align 8
  tail call void %26(ptr noundef %28) #3
  br label %aom_rb_read_bit.exit.i

aom_rb_read_bit.exit.i:                           ; preds = %27, %25, %17
  %.0.i.i = phi i32 [ %23, %17 ], [ 0, %27 ], [ 0, %25 ]
  %29 = shl nuw i32 %.0.i.i, %.0.i
  %30 = or i32 %29, %.067.i
  %31 = icmp samesign ugt i32 %.0.in8.i, 1
  br i1 %31, label %9, label %aom_rb_read_literal.exit, !llvm.loop !4

aom_rb_read_literal.exit:                         ; preds = %aom_rb_read_bit.exit.i, %2
  %.06.lcssa.i = phi i32 [ 0, %2 ], [ %30, %aom_rb_read_bit.exit.i ]
  %32 = sub i32 31, %1
  %33 = shl i32 %.06.lcssa.i, %32
  %34 = ashr exact i32 %33, %32
  ret i32 %34
}